; Function Attrs: mustprogress nofree nounwind uwtable
define void @_Z12ps_setoriginP8t_psdata(ptr noundef captures(none) %0) local_unnamed_addr #8 {
  %2 = load ptr, ptr %0, align 8, !tbaa !9
  %3 = tail call i64 @fwrite(ptr nonnull @.str.60, i64 55, i64 1, ptr %2)
  %4 = getelementptr inbounds nuw i8, ptr %0, i64 36
  %5 = load i32, ptr %4, align 4, !tbaa !56
  %6 = add nsw i32 %5, 1
  store i32 %6, ptr %4, align 4, !tbaa !56
  ret void
}